target datalayout = "e-m:e-p270:32:32-p271:32:32-p272:64:64-i64:64-i128:128-f80:128-n8:16:32:64-S128"
target triple = "x86_64-pc-linux-gnu"

%struct._fvalue_t = type { ptr, %union.anon.1 }
%union.anon.1 = type { %struct._protocol_value_t }
%struct._protocol_value_t = type { ptr, i32, ptr, i8 }

; Function Attrs: null_pointer_is_valid sspstrong uwtable
define internal void @value_copy(ptr noundef %0, ptr noundef %1) #0 {
  %3 = alloca ptr, align 8
  %4 = alloca ptr, align 8
  store ptr %0, ptr %3, align 8
  store ptr %1, ptr %4, align 8
  %5 = load ptr, ptr %4, align 8
  %6 = getelementptr inbounds nuw %struct._fvalue_t, ptr %5, i32 0, i32 1
  %7 = getelementptr inbounds nuw %struct._protocol_value_t, ptr %6, i32 0, i32 0
  %8 = load ptr, ptr %7, align 8
  %9 = call ptr @tvb_clone(ptr noundef %8)
  %10 = load ptr, ptr %3, align 8
  %11 = getelementptr inbounds nuw %struct._fvalue_t, ptr %10, i32 0, i32 1
  %12 = getelementptr inbounds nuw %struct._protocol_value_t, ptr %11, i32 0, i32 0
  store ptr %9, ptr %12, align 8
  %13 = load ptr, ptr %4, align 8
  %14 = getelementptr inbounds nuw %struct._fvalue_t, ptr %13, i32 0, i32 1
  %15 = getelementptr inbounds nuw %struct._protocol_value_t, ptr %14, i32 0, i32 2
  %16 = load ptr, ptr %15, align 8
  %17 = call noalias ptr @g_strdup(ptr noundef %16)
  %18 = load ptr, ptr %3, align 8
  %19 = getelementptr inbounds nuw %struct._fvalue_t, ptr %18, i32 0, i32 1
  %20 = getelementptr inbounds nuw %struct._protocol_value_t, ptr %19, i32 0, i32 2
  store ptr %17, ptr %20, align 8
  %21 = load ptr, ptr %3, align 8
  %22 = getelementptr inbounds nuw %struct._fvalue_t, ptr %21, i32 0, i32 1
  %23 = getelementptr inbounds nuw %struct._protocol_value_t, ptr %22, i32 0, i32 3
  store i8 1, ptr %23, align 8
  %24 = load ptr, ptr %4, align 8
  %25 = getelementptr inbounds nuw %struct._fvalue_t, ptr %24, i32 0, i32 1
  %26 = getelementptr inbounds nuw %struct._protocol_value_t, ptr %25, i32 0, i32 1
  %27 = load i32, ptr %26, align 8
  %28 = load ptr, ptr %3, align 8
  %29 = getelementptr inbounds nuw %struct._fvalue_t, ptr %28, i32 0, i32 1
  %30 = getelementptr inbounds nuw %struct._protocol_value_t, ptr %29, i32 0, i32 1
  store i32 %27, ptr %30, align 8
  ret void
}