; Function Attrs: null_pointer_is_valid sspstrong uwtable
define internal void @value_copy(ptr noundef writeonly captures(none) initializes((8, 20), (24, 33)) %0, ptr noundef readonly captures(none) %1) #0 {
  %3 = getelementptr inbounds nuw i8, ptr %1, i64 8
  %4 = load ptr, ptr %3, align 8
  %5 = tail call ptr @tvb_clone(ptr noundef %4)
  %6 = getelementptr inbounds nuw i8, ptr %0, i64 8
  store ptr %5, ptr %6, align 8
  %7 = getelementptr inbounds nuw i8, ptr %1, i64 24
  %8 = load ptr, ptr %7, align 8
  %9 = tail call noalias ptr @g_strdup(ptr noundef %8)
  %10 = getelementptr inbounds nuw i8, ptr %0, i64 24
  store ptr %9, ptr %10, align 8
  %11 = getelementptr inbounds nuw i8, ptr %0, i64 32
  store i8 1, ptr %11, align 8
  %12 = getelementptr inbounds nuw i8, ptr %1, i64 16
  %13 = load i32, ptr %12, align 8
  %14 = getelementptr inbounds nuw i8, ptr %0, i64 16
  store i32 %13, ptr %14, align 8
  ret void
}